; Function Attrs: mustprogress nounwind uwtable
define dso_local void @_ZN4i18n12phonenumbers11AreaCodeMapD2Ev(ptr noundef nonnull readonly align 8 captures(none) dereferenceable(16) %0) unnamed_addr #4 align 2 {
  %2 = getelementptr inbounds nuw i8, ptr %0, i64 8
  %3 = load ptr, ptr %2, align 8
  %4 = icmp eq ptr %3, null
  br i1 %4, label %_ZN5boost10scoped_ptrIKN4i18n12phonenumbers17DefaultMapStorageEED2Ev.exit, label %5

5:                                                ; preds = %1
  %6 = load ptr, ptr %3, align 8
  %7 = getelementptr inbounds nuw i8, ptr %6, i64 8
  %8 = load ptr, ptr %7, align 8
  tail call void %8(ptr noundef nonnull align 8 dereferenceable(44) %3) #8
  br label %_ZN5boost10scoped_ptrIKN4i18n12phonenumbers17DefaultMapStorageEED2Ev.exit

_ZN5boost10scoped_ptrIKN4i18n12phonenumbers17DefaultMapStorageEED2Ev.exit: ; preds = %1, %5
  ret void
}